; Function Attrs: nounwind uwtable
define void @zend_unregister_ini_entries_ex(i32 noundef %0, i32 noundef %1) local_unnamed_addr #0 {
  %3 = alloca i32, align 4
  store i32 %0, ptr %3, align 4
  %4 = icmp eq i32 %1, 2
  %.val = load ptr, ptr getelementptr inbounds (%struct._zend_executor_globals, ptr @executor_globals, i64 0, i32 46), align 8
  %registered_zend_ini_directives.val = load ptr, ptr @registered_zend_ini_directives, align 8
  %storemerge = select i1 %4, ptr %.val, ptr %registered_zend_ini_directives.val
  store ptr %storemerge, ptr @zend_unregister_ini_entries_ex.ini_directives, align 8
  call void @zend_hash_apply_with_argument(ptr noundef %storemerge, ptr noundef nonnull @zend_remove_ini_entries, ptr noundef nonnull %3) #20
  ret void
}